; Function Attrs: nounwind uwtable
define void @_ZTv0_n24_N30colvarbias_restraint_histogramD0Ev(ptr noundef %0) unnamed_addr #7 align 2 {
  %2 = load ptr, ptr %0, align 8
  %3 = getelementptr inbounds i8, ptr %2, i64 -24
  %4 = load i64, ptr %3, align 8
  %5 = getelementptr inbounds i8, ptr %0, i64 %4
  tail call void @_ZN30colvarbias_restraint_histogramD2Ev(ptr noundef nonnull align 8 dereferenceable(425) %5, ptr noundef nonnull @_ZTT30colvarbias_restraint_histogram) #26
  %6 = getelementptr inbounds i8, ptr %5, i64 752
  tail call void @_ZN10colvardepsD2Ev(ptr noundef nonnull align 8 dereferenceable(120) %6) #26
  %7 = getelementptr inbounds i8, ptr %5, i64 432
  tail call void @_ZN11colvarparseD2Ev(ptr noundef nonnull align 8 dereferenceable(320) %7) #26
  tail call void @_ZdlPv(ptr noundef nonnull %5) #25
  ret void
}